; Function Attrs: nounwind uwtable
define hidden ptr @ASN1_d2i_fp(ptr noundef readnone captures(none) %0, ptr noundef readonly captures(none) %1, ptr noundef %2, ptr noundef %3) local_unnamed_addr #0 {
  %5 = alloca ptr, align 8
  %6 = alloca ptr, align 8
  %7 = tail call ptr @BIO_s_file() #4
  %8 = tail call ptr @BIO_new(ptr noundef %7) #4
  %9 = icmp eq ptr %8, null
  br i1 %9, label %10, label %11

10:                                               ; preds = %4
  tail call void @ERR_put_error(i32 noundef 12, i32 noundef 0, i32 noundef 7, ptr noundef nonnull @.str, i32 noundef 76) #4
  br label %22

11:                                               ; preds = %4
  %12 = tail call i32 @BIO_set_fp(ptr noundef nonnull %8, ptr noundef %2, i32 noundef 0) #4
  call void @llvm.lifetime.start.p0(i64 8, ptr nonnull %5) #4
  store ptr null, ptr %5, align 8, !tbaa !6
  call void @llvm.lifetime.start.p0(i64 8, ptr nonnull %6) #4
  %13 = call fastcc i32 @asn1_d2i_read_bio(ptr noundef nonnull %8, ptr noundef %5)
  %14 = icmp slt i32 %13, 0
  %.pre.i = load ptr, ptr %5, align 8, !tbaa !6
  br i1 %14, label %19, label %.thread.i

.thread.i:                                        ; preds = %11
  %15 = getelementptr inbounds nuw i8, ptr %.pre.i, i64 8
  %16 = load ptr, ptr %15, align 8, !tbaa !11
  store ptr %16, ptr %6, align 8, !tbaa !15
  %17 = zext nneg i32 %13 to i64
  %18 = call ptr %1(ptr noundef %3, ptr noundef nonnull %6, i64 noundef %17) #4
  br label %20

19:                                               ; preds = %11
  %.not.i = icmp eq ptr %.pre.i, null
  br i1 %.not.i, label %ASN1_d2i_bio.exit, label %20

20:                                               ; preds = %19, %.thread.i
  %.09.i = phi ptr [ %18, %.thread.i ], [ null, %19 ]
  call void @BUF_MEM_free(ptr noundef nonnull %.pre.i) #4
  br label %ASN1_d2i_bio.exit

ASN1_d2i_bio.exit:                                ; preds = %19, %20
  %.010.i = phi ptr [ %.09.i, %20 ], [ null, %19 ]
  call void @llvm.lifetime.end.p0(i64 8, ptr nonnull %6) #4
  call void @llvm.lifetime.end.p0(i64 8, ptr nonnull %5) #4
  %21 = call i32 @BIO_free(ptr noundef nonnull %8) #4
  br label %22

22:                                               ; preds = %ASN1_d2i_bio.exit, %10
  %.0 = phi ptr [ null, %10 ], [ %.010.i, %ASN1_d2i_bio.exit ]
  ret ptr %.0
}